; Function Attrs: mustprogress uwtable
define dso_local void @_ZN20cmCTestUploadHandlerC2Ev(ptr noundef nonnull align 8 dereferenceable(336) %0) unnamed_addr #3 align 2 personality ptr @__gxx_personality_v0 {
  tail call void @_ZN21cmCTestGenericHandlerC2Ev(ptr noundef nonnull align 8 dereferenceable(284) %0)
  store ptr getelementptr inbounds ({ [8 x ptr] }, ptr @_ZTV20cmCTestUploadHandler, i64 0, i32 0, i64 2), ptr %0, align 8
  %2 = getelementptr inbounds i8, ptr %0, i64 296
  store i32 0, ptr %2, align 8
  %3 = getelementptr inbounds i8, ptr %0, i64 304
  store ptr null, ptr %3, align 8
  %4 = getelementptr inbounds i8, ptr %0, i64 312
  store ptr %2, ptr %4, align 8
  %5 = getelementptr inbounds i8, ptr %0, i64 320
  store ptr %2, ptr %5, align 8
  %6 = getelementptr inbounds i8, ptr %0, i64 328
  store i64 0, ptr %6, align 8
  invoke void @_ZN21cmCTestGenericHandler10InitializeEv(ptr noundef nonnull align 8 dereferenceable(284) %0)
          to label %.noexc unwind label %13

.noexc:                                           ; preds = %1
  %7 = getelementptr inbounds i8, ptr %0, i64 288
  %8 = load ptr, ptr %3, align 8
  invoke void @_ZNSt8_Rb_treeINSt7__cxx1112basic_stringIcSt11char_traitsIcESaIcEEES5_St9_IdentityIS5_ESt4lessIS5_ESaIS5_EE8_M_eraseEPSt13_Rb_tree_nodeIS5_E(ptr noundef nonnull align 8 dereferenceable(48) %7, ptr noundef %8)
          to label %12 unwind label %9

9:                                                ; preds = %.noexc
  %10 = landingpad { ptr, i32 }
          catch ptr null
  %11 = extractvalue { ptr, i32 } %10, 0
  tail call void @__clang_call_terminate(ptr %11) #13
  unreachable

12:                                               ; preds = %.noexc
  store ptr null, ptr %3, align 8
  store ptr %2, ptr %4, align 8
  store ptr %2, ptr %5, align 8
  store i64 0, ptr %6, align 8
  ret void

13:                                               ; preds = %1
  %14 = landingpad { ptr, i32 }
          cleanup
  %15 = getelementptr inbounds i8, ptr %0, i64 288
  tail call void @_ZNSt3setINSt7__cxx1112basic_stringIcSt11char_traitsIcESaIcEEESt4lessIS5_ESaIS5_EED2Ev(ptr noundef nonnull align 8 dereferenceable(48) %15) #14
  tail call void @_ZN21cmCTestGenericHandlerD2Ev(ptr noundef nonnull align 8 dereferenceable(284) %0) #14
  resume { ptr, i32 } %14
}